; Function Attrs: mustprogress nofree norecurse nosync nounwind sspstrong willreturn memory(none) uwtable
define hidden range(i64 1, 0) i64 @rb_yjit_fix_mod_fix(i64 noundef %0, i64 noundef %1) local_unnamed_addr #9 {
  %3 = ashr i64 %0, 1
  %4 = ashr i64 %1, 1
  %5 = icmp eq i64 %3, -4611686018427387904
  %6 = icmp eq i64 %4, -1
  %or.cond.i.i = and i1 %5, %6
  br i1 %or.cond.i.i, label %rb_fix_mod_fix.exit, label %7

7:                                                ; preds = %2
  %8 = srem i64 %3, %4
  %9 = icmp sgt i64 %4, 0
  br i1 %9, label %10, label %12

10:                                               ; preds = %7
  %11 = icmp slt i64 %8, 0
  br i1 %11, label %14, label %16

12:                                               ; preds = %7
  %13 = icmp sgt i64 %8, 0
  br i1 %13, label %14, label %16

14:                                               ; preds = %12, %10
  %15 = add nsw i64 %8, %4
  br label %16

16:                                               ; preds = %14, %12, %10
  %.0.i.i = phi i64 [ %15, %14 ], [ %8, %10 ], [ %8, %12 ]
  %17 = shl i64 %.0.i.i, 1
  %18 = or disjoint i64 %17, 1
  br label %rb_fix_mod_fix.exit

rb_fix_mod_fix.exit:                              ; preds = %2, %16
  %.sink.i.i = phi i64 [ %18, %16 ], [ 1, %2 ]
  ret i64 %.sink.i.i
}